target datalayout = "e-m:e-p270:32:32-p271:32:32-p272:64:64-i64:64-i128:128-f80:128-n8:16:32:64-S128"
target triple = "x86_64-pc-linux-gnu"

%struct.AVFilterContext = type { ptr, ptr, ptr, ptr, ptr, i32, ptr, ptr, i32, ptr, ptr, i32, i32, ptr, ptr, ptr, ptr, i32, ptr, i32, i32 }
%struct.XFadeContext = type { ptr, i32, i64, i64, ptr, i32, i32, i32, i64, i64, i64, i64, i32, [2 x i32], [2 x ptr], i32, [4 x i16], [4 x i16], ptr, ptr }
%struct.AVRational = type { i32, i32 }
%struct.AVFrame = type { [8 x ptr], [8 x i32], ptr, i32, i32, i32, i32, i32, %struct.AVRational, i64, i64, %struct.AVRational, i32, ptr, i32, i32, [8 x ptr], ptr, i32, ptr, i32, i32, i32, i32, i32, i32, i32, i64, ptr, i32, ptr, ptr, i64, i64, i64, i64, ptr, %struct.AVChannelLayout, i64 }
%struct.AVChannelLayout = type { i32, i32, %union.anon.1, ptr }
%union.anon.1 = type { i64 }

; Function Attrs: alwaysinline nounwind willreturn memory(none) uwtable
define internal float @av_clipf_c(float noundef %0, float noundef %1, float noundef %2) #8 {
  %4 = alloca float, align 4
  %5 = alloca float, align 4
  %6 = alloca float, align 4
  store float %0, ptr %4, align 4, !tbaa !90
  store float %1, ptr %5, align 4, !tbaa !90
  store float %2, ptr %6, align 4, !tbaa !90
  %7 = load float, ptr %4, align 4, !tbaa !90
  %8 = load float, ptr %5, align 4, !tbaa !90
  %9 = fcmp nsz ogt float %7, %8
  br i1 %9, label %10, label %12

10:                                               ; preds = %3
  %11 = load float, ptr %4, align 4, !tbaa !90
  br label %14

12:                                               ; preds = %3
  %13 = load float, ptr %5, align 4, !tbaa !90
  br label %14

14:                                               ; preds = %12, %10
  %15 = phi nsz float [ %11, %10 ], [ %13, %12 ]
  %16 = load float, ptr %6, align 4, !tbaa !90
  %17 = fcmp nsz ogt float %15, %16
  br i1 %17, label %18, label %20

18:                                               ; preds = %14
  %19 = load float, ptr %6, align 4, !tbaa !90
  br label %30

20:                                               ; preds = %14
  %21 = load float, ptr %4, align 4, !tbaa !90
  %22 = load float, ptr %5, align 4, !tbaa !90
  %23 = fcmp nsz ogt float %21, %22
  br i1 %23, label %24, label %26

24:                                               ; preds = %20
  %25 = load float, ptr %4, align 4, !tbaa !90
  br label %28

26:                                               ; preds = %20
  %27 = load float, ptr %5, align 4, !tbaa !90
  br label %28

28:                                               ; preds = %26, %24
  %29 = phi nsz float [ %25, %24 ], [ %27, %26 ]
  br label %30

30:                                               ; preds = %28, %18
  %31 = phi nsz float [ %19, %18 ], [ %29, %28 ]
  ret float %31
}

; Function Attrs: inlinehint nounwind uwtable
define internal float @mix(float noundef %0, float noundef %1, float noundef %2) #4 {
  %4 = alloca float, align 4
  %5 = alloca float, align 4
  %6 = alloca float, align 4
  store float %0, ptr %4, align 4, !tbaa !90
  store float %1, ptr %5, align 4, !tbaa !90
  store float %2, ptr %6, align 4, !tbaa !90
  %7 = load float, ptr %4, align 4, !tbaa !90
  %8 = load float, ptr %6, align 4, !tbaa !90
  %9 = load float, ptr %5, align 4, !tbaa !90
  %10 = load float, ptr %6, align 4, !tbaa !90
  %11 = fsub nsz float 1.000000e+00, %10
  %12 = fmul nsz float %9, %11
  %13 = call nsz float @llvm.fmuladd.f32(float %7, float %8, float %12)
  ret float %13
}

; Function Attrs: nounwind uwtable
define internal void @zoom(ptr noundef %0, ptr noundef %1, float noundef %2) #1 {
  %4 = alloca ptr, align 8
  %5 = alloca ptr, align 8
  %6 = alloca float, align 4
  store ptr %0, ptr %4, align 8, !tbaa !463
  store ptr %1, ptr %5, align 8, !tbaa !463
  store float %2, ptr %6, align 4, !tbaa !90
  %7 = load ptr, ptr %4, align 8, !tbaa !463
  %8 = load float, ptr %7, align 4, !tbaa !90
  %9 = fsub nsz float %8, 5.000000e-01
  %10 = load float, ptr %6, align 4, !tbaa !90
  %11 = call nsz float @llvm.fmuladd.f32(float %9, float %10, float 5.000000e-01)
  %12 = load ptr, ptr %4, align 8, !tbaa !463
  store float %11, ptr %12, align 4, !tbaa !90
  %13 = load ptr, ptr %5, align 8, !tbaa !463
  %14 = load float, ptr %13, align 4, !tbaa !90
  %15 = fsub nsz float %14, 5.000000e-01
  %16 = load float, ptr %6, align 4, !tbaa !90
  %17 = call nsz float @llvm.fmuladd.f32(float %15, float %16, float 5.000000e-01)
  %18 = load ptr, ptr %5, align 8, !tbaa !463
  store float %17, ptr %18, align 4, !tbaa !90
  ret void
}

; Function Attrs: inlinehint nounwind uwtable
define internal float @smoothstep(float noundef %0, float noundef %1, float noundef %2) #4 {
  %4 = alloca float, align 4
  %5 = alloca float, align 4
  %6 = alloca float, align 4
  %7 = alloca float, align 4
  store float %0, ptr %4, align 4, !tbaa !90
  store float %1, ptr %5, align 4, !tbaa !90
  store float %2, ptr %6, align 4, !tbaa !90
  call void @llvm.lifetime.start.p0(i64 4, ptr %7) #10
  %8 = load float, ptr %6, align 4, !tbaa !90
  %9 = load float, ptr %4, align 4, !tbaa !90
  %10 = fsub nsz float %8, %9
  %11 = load float, ptr %5, align 4, !tbaa !90
  %12 = load float, ptr %4, align 4, !tbaa !90
  %13 = fsub nsz float %11, %12
  %14 = fdiv nsz float %10, %13
  %15 = call nsz float @av_clipf_c(float noundef %14, float noundef 0.000000e+00, float noundef 1.000000e+00) #11
  store float %15, ptr %7, align 4, !tbaa !90
  %16 = load float, ptr %7, align 4, !tbaa !90
  %17 = load float, ptr %7, align 4, !tbaa !90
  %18 = fmul nsz float %16, %17
  %19 = load float, ptr %7, align 4, !tbaa !90
  %20 = call nsz float @llvm.fmuladd.f32(float -2.000000e+00, float %19, float 3.000000e+00)
  %21 = fmul nsz float %18, %20
  call void @llvm.lifetime.end.p0(i64 4, ptr %7) #10
  ret float %21
}

; Function Attrs: nounwind uwtable
define internal void @zoomin8_transition(ptr noundef %0, ptr noundef %1, ptr noundef %2, ptr noundef %3, float noundef %4, i32 noundef %5, i32 noundef %6, i32 noundef %7) #1 {
  %9 = alloca ptr, align 8
  %10 = alloca ptr, align 8
  %11 = alloca ptr, align 8
  %12 = alloca ptr, align 8
  %13 = alloca float, align 4
  %14 = alloca i32, align 4
  %15 = alloca i32, align 4
  %16 = alloca i32, align 4
  %17 = alloca ptr, align 8
  %18 = alloca i32, align 4
  %19 = alloca float, align 4
  %20 = alloca float, align 4
  %21 = alloca float, align 4
  %22 = alloca i32, align 4
  %23 = alloca i32, align 4
  %24 = alloca ptr, align 8
  %25 = alloca ptr, align 8
  %26 = alloca ptr, align 8
  %27 = alloca i32, align 4
  %28 = alloca i32, align 4
  %29 = alloca float, align 4
  %30 = alloca float, align 4
  %31 = alloca float, align 4
  %32 = alloca i32, align 4
  %33 = alloca i32, align 4
  store ptr %0, ptr %9, align 8, !tbaa !4
  store ptr %1, ptr %10, align 8, !tbaa !36
  store ptr %2, ptr %11, align 8, !tbaa !36
  store ptr %3, ptr %12, align 8, !tbaa !36
  store float %4, ptr %13, align 4, !tbaa !90
  store i32 %5, ptr %14, align 4, !tbaa !32
  store i32 %6, ptr %15, align 4, !tbaa !32
  store i32 %7, ptr %16, align 4, !tbaa !32
  call void @llvm.lifetime.start.p0(i64 8, ptr %17) #10
  %34 = load ptr, ptr %9, align 8, !tbaa !4
  %35 = getelementptr inbounds nuw %struct.AVFilterContext, ptr %34, i32 0, i32 9
  %36 = load ptr, ptr %35, align 8, !tbaa !9
  store ptr %36, ptr %17, align 8, !tbaa !22
  call void @llvm.lifetime.start.p0(i64 4, ptr %18) #10
  %37 = load ptr, ptr %12, align 8, !tbaa !36
  %38 = getelementptr inbounds nuw %struct.AVFrame, ptr %37, i32 0, i32 3
  %39 = load i32, ptr %38, align 8, !tbaa !92
  store i32 %39, ptr %18, align 4, !tbaa !32
  call void @llvm.lifetime.start.p0(i64 4, ptr %19) #10
  %40 = load i32, ptr %18, align 4, !tbaa !32
  %41 = sitofp i32 %40 to float
  store float %41, ptr %19, align 4, !tbaa !90
  call void @llvm.lifetime.start.p0(i64 4, ptr %20) #10
  %42 = load ptr, ptr %12, align 8, !tbaa !36
  %43 = getelementptr inbounds nuw %struct.AVFrame, ptr %42, i32 0, i32 4
  %44 = load i32, ptr %43, align 4, !tbaa !95
  %45 = sitofp i32 %44 to float
  store float %45, ptr %20, align 4, !tbaa !90
  call void @llvm.lifetime.start.p0(i64 4, ptr %21) #10
  %46 = load float, ptr %13, align 4, !tbaa !90
  %47 = call nsz float @smoothstep(float noundef 5.000000e-01, float noundef 1.000000e+00, float noundef %46)
  store float %47, ptr %21, align 4, !tbaa !90
  call void @llvm.lifetime.start.p0(i64 4, ptr %22) #10
  store i32 0, ptr %22, align 4, !tbaa !32
  br label %48

48:                                               ; preds = %187, %8
  %49 = load i32, ptr %22, align 4, !tbaa !32
  %50 = load ptr, ptr %17, align 8, !tbaa !22
  %51 = getelementptr inbounds nuw %struct.XFadeContext, ptr %50, i32 0, i32 5
  %52 = load i32, ptr %51, align 8, !tbaa !82
  %53 = icmp slt i32 %49, %52
  br i1 %53, label %55, label %54

54:                                               ; preds = %48
  store i32 2, ptr %23, align 4
  call void @llvm.lifetime.end.p0(i64 4, ptr %22) #10
  br label %190

55:                                               ; preds = %48
  call void @llvm.lifetime.start.p0(i64 8, ptr %24) #10
  %56 = load ptr, ptr %10, align 8, !tbaa !36
  %57 = getelementptr inbounds nuw %struct.AVFrame, ptr %56, i32 0, i32 0
  %58 = load i32, ptr %22, align 4, !tbaa !32
  %59 = sext i32 %58 to i64
  %60 = getelementptr inbounds [8 x ptr], ptr %57, i64 0, i64 %59
  %61 = load ptr, ptr %60, align 8, !tbaa !96
  store ptr %61, ptr %24, align 8, !tbaa !96
  call void @llvm.lifetime.start.p0(i64 8, ptr %25) #10
  %62 = load ptr, ptr %11, align 8, !tbaa !36
  %63 = getelementptr inbounds nuw %struct.AVFrame, ptr %62, i32 0, i32 0
  %64 = load i32, ptr %22, align 4, !tbaa !32
  %65 = sext i32 %64 to i64
  %66 = getelementptr inbounds [8 x ptr], ptr %63, i64 0, i64 %65
  %67 = load ptr, ptr %66, align 8, !tbaa !96
  %68 = load i32, ptr %14, align 4, !tbaa !32
  %69 = load ptr, ptr %11, align 8, !tbaa !36
  %70 = getelementptr inbounds nuw %struct.AVFrame, ptr %69, i32 0, i32 1
  %71 = load i32, ptr %22, align 4, !tbaa !32
  %72 = sext i32 %71 to i64
  %73 = getelementptr inbounds [8 x i32], ptr %70, i64 0, i64 %72
  %74 = load i32, ptr %73, align 4, !tbaa !32
  %75 = mul nsw i32 %68, %74
  %76 = sext i32 %75 to i64
  %77 = getelementptr inbounds i8, ptr %67, i64 %76
  store ptr %77, ptr %25, align 8, !tbaa !96
  call void @llvm.lifetime.start.p0(i64 8, ptr %26) #10
  %78 = load ptr, ptr %12, align 8, !tbaa !36
  %79 = getelementptr inbounds nuw %struct.AVFrame, ptr %78, i32 0, i32 0
  %80 = load i32, ptr %22, align 4, !tbaa !32
  %81 = sext i32 %80 to i64
  %82 = getelementptr inbounds [8 x ptr], ptr %79, i64 0, i64 %81
  %83 = load ptr, ptr %82, align 8, !tbaa !96
  %84 = load i32, ptr %14, align 4, !tbaa !32
  %85 = load ptr, ptr %12, align 8, !tbaa !36
  %86 = getelementptr inbounds nuw %struct.AVFrame, ptr %85, i32 0, i32 1
  %87 = load i32, ptr %22, align 4, !tbaa !32
  %88 = sext i32 %87 to i64
  %89 = getelementptr inbounds [8 x i32], ptr %86, i64 0, i64 %88
  %90 = load i32, ptr %89, align 4, !tbaa !32
  %91 = mul nsw i32 %84, %90
  %92 = sext i32 %91 to i64
  %93 = getelementptr inbounds i8, ptr %83, i64 %92
  store ptr %93, ptr %26, align 8, !tbaa !96
  call void @llvm.lifetime.start.p0(i64 4, ptr %27) #10
  %94 = load i32, ptr %14, align 4, !tbaa !32
  store i32 %94, ptr %27, align 4, !tbaa !32
  br label %95

95:                                               ; preds = %183, %55
  %96 = load i32, ptr %27, align 4, !tbaa !32
  %97 = load i32, ptr %15, align 4, !tbaa !32
  %98 = icmp slt i32 %96, %97
  br i1 %98, label %100, label %99

99:                                               ; preds = %95
  store i32 5, ptr %23, align 4
  call void @llvm.lifetime.end.p0(i64 4, ptr %27) #10
  br label %186

100:                                              ; preds = %95
  call void @llvm.lifetime.start.p0(i64 4, ptr %28) #10
  store i32 0, ptr %28, align 4, !tbaa !32
  br label %101

101:                                              ; preds = %159, %100
  %102 = load i32, ptr %28, align 4, !tbaa !32
  %103 = load i32, ptr %18, align 4, !tbaa !32
  %104 = icmp slt i32 %102, %103
  br i1 %104, label %106, label %105

105:                                              ; preds = %101
  store i32 8, ptr %23, align 4
  call void @llvm.lifetime.end.p0(i64 4, ptr %28) #10
  br label %162

106:                                              ; preds = %101
  call void @llvm.lifetime.start.p0(i64 4, ptr %29) #10
  call void @llvm.lifetime.start.p0(i64 4, ptr %30) #10
  call void @llvm.lifetime.start.p0(i64 4, ptr %31) #10
  call void @llvm.lifetime.start.p0(i64 4, ptr %32) #10
  call void @llvm.lifetime.start.p0(i64 4, ptr %33) #10
  %107 = load i32, ptr %28, align 4, !tbaa !32
  %108 = sitofp i32 %107 to float
  %109 = load float, ptr %19, align 4, !tbaa !90
  %110 = fdiv nsz float %108, %109
  store float %110, ptr %30, align 4, !tbaa !90
  %111 = load i32, ptr %27, align 4, !tbaa !32
  %112 = sitofp i32 %111 to float
  %113 = load float, ptr %20, align 4, !tbaa !90
  %114 = fdiv nsz float %112, %113
  store float %114, ptr %31, align 4, !tbaa !90
  %115 = load float, ptr %21, align 4, !tbaa !90
  call void @zoom(ptr noundef %30, ptr noundef %31, float noundef %115)
  %116 = load float, ptr %30, align 4, !tbaa !90
  %117 = load float, ptr %19, align 4, !tbaa !90
  %118 = fsub nsz float %117, 1.000000e+00
  %119 = fmul nsz float %116, %118
  %120 = call nsz float @llvm.ceil.f32(float %119)
  %121 = fptosi float %120 to i32
  store i32 %121, ptr %32, align 4, !tbaa !32
  %122 = load float, ptr %31, align 4, !tbaa !90
  %123 = load float, ptr %20, align 4, !tbaa !90
  %124 = fsub nsz float %123, 1.000000e+00
  %125 = fmul nsz float %122, %124
  %126 = call nsz float @llvm.ceil.f32(float %125)
  %127 = fptosi float %126 to i32
  store i32 %127, ptr %33, align 4, !tbaa !32
  %128 = load ptr, ptr %24, align 8, !tbaa !96
  %129 = load i32, ptr %32, align 4, !tbaa !32
  %130 = load i32, ptr %33, align 4, !tbaa !32
  %131 = load ptr, ptr %10, align 8, !tbaa !36
  %132 = getelementptr inbounds nuw %struct.AVFrame, ptr %131, i32 0, i32 1
  %133 = load i32, ptr %22, align 4, !tbaa !32
  %134 = sext i32 %133 to i64
  %135 = getelementptr inbounds [8 x i32], ptr %132, i64 0, i64 %134
  %136 = load i32, ptr %135, align 4, !tbaa !32
  %137 = mul nsw i32 %130, %136
  %138 = sdiv i32 %137, 1
  %139 = add nsw i32 %129, %138
  %140 = sext i32 %139 to i64
  %141 = getelementptr inbounds i8, ptr %128, i64 %140
  %142 = load i8, ptr %141, align 1, !tbaa !97
  %143 = uitofp i8 %142 to float
  store float %143, ptr %29, align 4, !tbaa !90
  %144 = load float, ptr %29, align 4, !tbaa !90
  %145 = load ptr, ptr %25, align 8, !tbaa !96
  %146 = load i32, ptr %28, align 4, !tbaa !32
  %147 = sext i32 %146 to i64
  %148 = getelementptr inbounds i8, ptr %145, i64 %147
  %149 = load i8, ptr %148, align 1, !tbaa !97
  %150 = uitofp i8 %149 to float
  %151 = load float, ptr %13, align 4, !tbaa !90
  %152 = call nsz float @smoothstep(float noundef 0.000000e+00, float noundef 5.000000e-01, float noundef %151)
  %153 = call nsz float @mix(float noundef %144, float noundef %150, float noundef %152)
  %154 = fptoui float %153 to i8
  %155 = load ptr, ptr %26, align 8, !tbaa !96
  %156 = load i32, ptr %28, align 4, !tbaa !32
  %157 = sext i32 %156 to i64
  %158 = getelementptr inbounds i8, ptr %155, i64 %157
  store i8 %154, ptr %158, align 1, !tbaa !97
  call void @llvm.lifetime.end.p0(i64 4, ptr %33) #10
  call void @llvm.lifetime.end.p0(i64 4, ptr %32) #10
  call void @llvm.lifetime.end.p0(i64 4, ptr %31) #10
  call void @llvm.lifetime.end.p0(i64 4, ptr %30) #10
  call void @llvm.lifetime.end.p0(i64 4, ptr %29) #10
  br label %159

159:                                              ; preds = %106
  %160 = load i32, ptr %28, align 4, !tbaa !32
  %161 = add nsw i32 %160, 1
  store i32 %161, ptr %28, align 4, !tbaa !32
  br label %101, !llvm.loop !372

162:                                              ; preds = %105
  %163 = load ptr, ptr %12, align 8, !tbaa !36
  %164 = getelementptr inbounds nuw %struct.AVFrame, ptr %163, i32 0, i32 1
  %165 = load i32, ptr %22, align 4, !tbaa !32
  %166 = sext i32 %165 to i64
  %167 = getelementptr inbounds [8 x i32], ptr %164, i64 0, i64 %166
  %168 = load i32, ptr %167, align 4, !tbaa !32
  %169 = sdiv i32 %168, 1
  %170 = load ptr, ptr %26, align 8, !tbaa !96
  %171 = sext i32 %169 to i64
  %172 = getelementptr inbounds i8, ptr %170, i64 %171
  store ptr %172, ptr %26, align 8, !tbaa !96
  %173 = load ptr, ptr %11, align 8, !tbaa !36
  %174 = getelementptr inbounds nuw %struct.AVFrame, ptr %173, i32 0, i32 1
  %175 = load i32, ptr %22, align 4, !tbaa !32
  %176 = sext i32 %175 to i64
  %177 = getelementptr inbounds [8 x i32], ptr %174, i64 0, i64 %176
  %178 = load i32, ptr %177, align 4, !tbaa !32
  %179 = sdiv i32 %178, 1
  %180 = load ptr, ptr %25, align 8, !tbaa !96
  %181 = sext i32 %179 to i64
  %182 = getelementptr inbounds i8, ptr %180, i64 %181
  store ptr %182, ptr %25, align 8, !tbaa !96
  br label %183

183:                                              ; preds = %162
  %184 = load i32, ptr %27, align 4, !tbaa !32
  %185 = add nsw i32 %184, 1
  store i32 %185, ptr %27, align 4, !tbaa !32
  br label %95, !llvm.loop !373

186:                                              ; preds = %99
  call void @llvm.lifetime.end.p0(i64 8, ptr %26) #10
  call void @llvm.lifetime.end.p0(i64 8, ptr %25) #10
  call void @llvm.lifetime.end.p0(i64 8, ptr %24) #10
  br label %187

187:                                              ; preds = %186
  %188 = load i32, ptr %22, align 4, !tbaa !32
  %189 = add nsw i32 %188, 1
  store i32 %189, ptr %22, align 4, !tbaa !32
  br label %48, !llvm.loop !374

190:                                              ; preds = %54
  call void @llvm.lifetime.end.p0(i64 4, ptr %21) #10
  call void @llvm.lifetime.end.p0(i64 4, ptr %20) #10
  call void @llvm.lifetime.end.p0(i64 4, ptr %19) #10
  call void @llvm.lifetime.end.p0(i64 4, ptr %18) #10
  call void @llvm.lifetime.end.p0(i64 8, ptr %17) #10
  ret void
}