; Function Attrs: nofree norecurse nosync nounwind memory(readwrite, inaccessiblemem: none) uwtable
define internal void @zoomin8_transition(ptr noundef readonly captures(none) %0, ptr noundef readonly captures(none) %1, ptr noundef readonly captures(none) %2, ptr noundef readonly captures(none) %3, float noundef %4, i32 noundef %5, i32 noundef %6, i32 %7) #6 {
  %9 = getelementptr inbounds nuw i8, ptr %0, i64 72
  %10 = load ptr, ptr %9, align 8, !tbaa !4
  %11 = getelementptr inbounds nuw i8, ptr %3, i64 104
  %12 = load i32, ptr %11, align 8, !tbaa !85
  %13 = sitofp i32 %12 to float
  %14 = getelementptr inbounds nuw i8, ptr %3, i64 108
  %15 = load i32, ptr %14, align 4, !tbaa !88
  %16 = sitofp i32 %15 to float
  %17 = fadd nsz float %4, -5.000000e-01
  %18 = fmul nsz float %17, 2.000000e+00
  %19 = fcmp nsz ogt float %18, 0.000000e+00
  %20 = select nsz i1 %19, float %18, float 0.000000e+00
  %21 = fcmp nsz ogt float %20, 1.000000e+00
  %..i.i = select nsz i1 %21, float 1.000000e+00, float %20
  %22 = fmul nsz float %..i.i, %..i.i
  %23 = tail call nsz float @llvm.fmuladd.f32(float %..i.i, float -2.000000e+00, float 3.000000e+00)
  %24 = fmul nsz float %22, %23
  %25 = getelementptr inbounds nuw i8, ptr %10, i64 40
  %26 = load i32, ptr %25, align 8, !tbaa !77
  %27 = icmp sgt i32 %26, 0
  br i1 %27, label %.lr.ph, label %._crit_edge

.lr.ph:                                           ; preds = %8
  %28 = getelementptr inbounds nuw i8, ptr %2, i64 64
  %29 = getelementptr inbounds nuw i8, ptr %3, i64 64
  %30 = icmp slt i32 %5, %6
  %31 = fadd nsz float %13, -1.000000e+00
  %32 = fadd nsz float %16, -1.000000e+00
  %33 = getelementptr inbounds nuw i8, ptr %1, i64 64
  %34 = fmul nsz float %4, 2.000000e+00
  %35 = fcmp nsz ogt float %34, 0.000000e+00
  %36 = select nsz i1 %35, float %34, float 0.000000e+00
  %37 = fcmp nsz ogt float %36, 1.000000e+00
  %..i.i54 = select nsz i1 %37, float 1.000000e+00, float %36
  %38 = fmul nsz float %..i.i54, %..i.i54
  %39 = tail call nsz float @llvm.fmuladd.f32(float %..i.i54, float -2.000000e+00, float 3.000000e+00)
  %40 = fmul nsz float %38, %39
  %41 = fsub nsz float 1.000000e+00, %40
  %42 = icmp sgt i32 %12, 0
  %or.cond = select i1 %30, i1 %42, i1 false
  br i1 %or.cond, label %.preheader.lr.ph.us.us.preheader, label %._crit_edge

.preheader.lr.ph.us.us.preheader:                 ; preds = %.lr.ph
  %wide.trip.count = zext nneg i32 %12 to i64
  br label %.preheader.lr.ph.us.us

.preheader.lr.ph.us.us:                           ; preds = %.preheader.lr.ph.us.us.preheader, %._crit_edge62.split.us.us.us
  %indvars.iv74 = phi i64 [ 0, %.preheader.lr.ph.us.us.preheader ], [ %indvars.iv.next75, %._crit_edge62.split.us.us.us ]
  %43 = getelementptr inbounds nuw [8 x ptr], ptr %1, i64 0, i64 %indvars.iv74
  %44 = load ptr, ptr %43, align 8, !tbaa !89
  %45 = getelementptr inbounds nuw [8 x ptr], ptr %2, i64 0, i64 %indvars.iv74
  %46 = load ptr, ptr %45, align 8, !tbaa !89
  %47 = getelementptr inbounds nuw [8 x i32], ptr %28, i64 0, i64 %indvars.iv74
  %48 = load i32, ptr %47, align 4, !tbaa !31
  %49 = mul nsw i32 %48, %5
  %50 = sext i32 %49 to i64
  %51 = getelementptr inbounds i8, ptr %46, i64 %50
  %52 = getelementptr inbounds nuw [8 x ptr], ptr %3, i64 0, i64 %indvars.iv74
  %53 = load ptr, ptr %52, align 8, !tbaa !89
  %54 = getelementptr inbounds nuw [8 x i32], ptr %29, i64 0, i64 %indvars.iv74
  %55 = load i32, ptr %54, align 4, !tbaa !31
  %56 = mul nsw i32 %55, %5
  %57 = sext i32 %56 to i64
  %58 = getelementptr inbounds i8, ptr %53, i64 %57
  %59 = getelementptr inbounds nuw [8 x i32], ptr %33, i64 0, i64 %indvars.iv74
  br label %.preheader.us.us.us

.preheader.us.us.us:                              ; preds = %._crit_edge.us.us.us, %.preheader.lr.ph.us.us
  %.05061.us.us.us = phi ptr [ %51, %.preheader.lr.ph.us.us ], [ %95, %._crit_edge.us.us.us ]
  %.05260.us.us.us = phi i32 [ %5, %.preheader.lr.ph.us.us ], [ %96, %._crit_edge.us.us.us ]
  %.05359.us.us.us = phi ptr [ %58, %.preheader.lr.ph.us.us ], [ %92, %._crit_edge.us.us.us ]
  %60 = sitofp i32 %.05260.us.us.us to float
  %61 = fdiv nsz float %60, %16
  %62 = fadd nsz float %61, -5.000000e-01
  %63 = tail call nsz float @llvm.fmuladd.f32(float %62, float %24, float 5.000000e-01)
  %64 = fmul nsz float %32, %63
  %65 = tail call nsz float @llvm.ceil.f32(float %64)
  %66 = fptosi float %65 to i32
  br label %67

67:                                               ; preds = %67, %.preheader.us.us.us
  %indvars.iv = phi i64 [ %indvars.iv.next, %67 ], [ 0, %.preheader.us.us.us ]
  %68 = trunc nuw nsw i64 %indvars.iv to i32
  %69 = uitofp nneg i32 %68 to float
  %70 = fdiv nsz float %69, %13
  %71 = fadd nsz float %70, -5.000000e-01
  %72 = tail call nsz float @llvm.fmuladd.f32(float %71, float %24, float 5.000000e-01)
  %73 = fmul nsz float %31, %72
  %74 = tail call nsz float @llvm.ceil.f32(float %73)
  %75 = fptosi float %74 to i32
  %76 = load i32, ptr %59, align 4, !tbaa !31
  %77 = mul nsw i32 %76, %66
  %78 = add nsw i32 %77, %75
  %79 = sext i32 %78 to i64
  %80 = getelementptr inbounds i8, ptr %44, i64 %79
  %81 = load i8, ptr %80, align 1, !tbaa !90
  %82 = uitofp i8 %81 to float
  %83 = getelementptr inbounds nuw i8, ptr %.05061.us.us.us, i64 %indvars.iv
  %84 = load i8, ptr %83, align 1, !tbaa !90
  %85 = uitofp i8 %84 to float
  %86 = fmul nsz float %41, %85
  %87 = tail call nsz noundef float @llvm.fmuladd.f32(float %82, float %40, float %86)
  %88 = fptoui float %87 to i8
  %89 = getelementptr inbounds nuw i8, ptr %.05359.us.us.us, i64 %indvars.iv
  store i8 %88, ptr %89, align 1, !tbaa !90
  %indvars.iv.next = add nuw nsw i64 %indvars.iv, 1
  %exitcond.not = icmp eq i64 %indvars.iv.next, %wide.trip.count
  br i1 %exitcond.not, label %._crit_edge.us.us.us, label %67, !llvm.loop !364

._crit_edge.us.us.us:                             ; preds = %67
  %90 = load i32, ptr %54, align 4, !tbaa !31
  %91 = sext i32 %90 to i64
  %92 = getelementptr inbounds i8, ptr %.05359.us.us.us, i64 %91
  %93 = load i32, ptr %47, align 4, !tbaa !31
  %94 = sext i32 %93 to i64
  %95 = getelementptr inbounds i8, ptr %.05061.us.us.us, i64 %94
  %96 = add nsw i32 %.05260.us.us.us, 1
  %exitcond73.not = icmp eq i32 %96, %6
  br i1 %exitcond73.not, label %._crit_edge62.split.us.us.us, label %.preheader.us.us.us, !llvm.loop !365

._crit_edge62.split.us.us.us:                     ; preds = %._crit_edge.us.us.us
  %indvars.iv.next75 = add nuw nsw i64 %indvars.iv74, 1
  %97 = load i32, ptr %25, align 8, !tbaa !77
  %98 = sext i32 %97 to i64
  %99 = icmp slt i64 %indvars.iv.next75, %98
  br i1 %99, label %.preheader.lr.ph.us.us, label %._crit_edge, !llvm.loop !366

._crit_edge:                                      ; preds = %._crit_edge62.split.us.us.us, %.lr.ph, %8
  ret void
}